target datalayout = "e-m:e-p270:32:32-p271:32:32-p272:64:64-i64:64-i128:128-f80:128-n8:16:32:64-S128"
target triple = "x86_64-pc-linux-gnu"

%struct.darktable_t = type { %struct.dt_codepath_t, i32, i32, ptr, ptr, ptr, ptr, ptr, ptr, ptr, ptr, ptr, ptr, ptr, ptr, ptr, ptr, ptr, ptr, ptr, ptr, ptr, ptr, ptr, ptr, ptr, ptr, ptr, ptr, ptr, [64 x %struct.dt_pthread_mutex_t], %struct.dt_pthread_mutex_t, %struct.dt_pthread_mutex_t, %struct.dt_pthread_mutex_t, %struct.dt_pthread_mutex_t, %struct.dt_pthread_mutex_t, ptr, ptr, ptr, ptr, ptr, ptr, ptr, ptr, ptr, ptr, ptr, ptr, ptr, %struct.dt_lua_state_t, ptr, double, ptr, i32, [47 x i32], i32, i32, ptr, ptr, %struct.dt_sys_resources_t, %struct.dt_backthumb_t, %struct.dt_gimp_t }
%struct.dt_codepath_t = type { i8, [3 x i8] }
%struct.dt_pthread_mutex_t = type { %union.pthread_mutex_t }
%union.pthread_mutex_t = type { %struct.__pthread_mutex_s }
%struct.__pthread_mutex_s = type { i32, i32, i32, i32, i32, i16, i16, %struct.__pthread_internal_list }
%struct.__pthread_internal_list = type { ptr, ptr }
%struct.dt_lua_state_t = type { i32 }
%struct.dt_sys_resources_t = type { i64, i64, ptr, ptr, i32 }
%struct.dt_backthumb_t = type { double, double, i32, i32, i32, i32 }
%struct.dt_gimp_t = type { i32, ptr, ptr, i32, i32 }
%struct.dt_selection_t = type { ptr, i32 }

@darktable = external global %struct.darktable_t, align 8
@.str.3 = private unnamed_addr constant [120 x i8] c"generated/home/dtcxzyw/WorkSpace/Projects/compilers/llvm-opt-benchmark/bench/darktable/darktable/src/common/selection.c\00", align 1
@stderr = external global ptr, align 8
@.str.7 = private unnamed_addr constant [53 x i8] c"sqlite3 error: %s:%d, function %s(), query \22%s\22: %s\0A\00", align 1
@.str.13 = private unnamed_addr constant [41 x i8] c"[sql] %s:%d, function %s(): prepare \22%s\22\00", align 1
@.str.21 = private unnamed_addr constant [116 x i8] c"SELECT s.imgid FROM main.selected_images as s WHERE s.imgid IN (SELECT m.imgid FROM memory.collected_images as m)%s\00", align 1
@.str.22 = private unnamed_addr constant [19 x i8] c" ORDER BY num DESC\00", align 1
@.str.23 = private unnamed_addr constant [1 x i8] zeroinitializer, align 1
@.str.24 = private unnamed_addr constant [101 x i8] c"SELECT DISTINCT ng.id FROM (%s) AS ng WHERE ng.id IN (SELECT s.imgid FROM main.selected_images as s)\00", align 1
@.str.25 = private unnamed_addr constant [39 x i8] c"SELECT imgid FROM main.selected_images\00", align 1
@__FUNCTION__.dt_selection_get_list = private unnamed_addr constant [22 x i8] c"dt_selection_get_list\00", align 1

; Function Attrs: nounwind uwtable
define ptr @dt_selection_get_collection(ptr noundef %0) #0 {
  %2 = alloca ptr, align 8
  store ptr %0, ptr %2, align 8, !tbaa !6
  %3 = load ptr, ptr %2, align 8, !tbaa !6
  %4 = getelementptr inbounds nuw %struct.dt_selection_t, ptr %3, i32 0, i32 0
  %5 = load ptr, ptr %4, align 8, !tbaa !11
  ret ptr %5
}

; Function Attrs: nounwind uwtable
define ptr @dt_selection_get_list_query(ptr noundef %0, i32 noundef %1, i32 noundef %2) #0 {
  %4 = alloca ptr, align 8
  %5 = alloca i32, align 4
  %6 = alloca i32, align 4
  %7 = alloca ptr, align 8
  store ptr %0, ptr %4, align 8, !tbaa !6
  store i32 %1, ptr %5, align 4, !tbaa !56
  store i32 %2, ptr %6, align 4, !tbaa !56
  call void @llvm.lifetime.start.p0(i64 8, ptr %7) #5
  store ptr null, ptr %7, align 8, !tbaa !60
  %8 = load i32, ptr %5, align 4, !tbaa !56
  %9 = icmp ne i32 %8, 0
  br i1 %9, label %10, label %15

10:                                               ; preds = %3
  %11 = load i32, ptr %6, align 4, !tbaa !56
  %12 = icmp ne i32 %11, 0
  %13 = select i1 %12, ptr @.str.22, ptr @.str.23
  %14 = call noalias ptr (ptr, ...) @g_strdup_printf(ptr noundef @.str.21, ptr noundef %13)
  store ptr %14, ptr %7, align 8, !tbaa !60
  br label %26

15:                                               ; preds = %3
  %16 = load i32, ptr %6, align 4, !tbaa !56
  %17 = icmp ne i32 %16, 0
  br i1 %17, label %18, label %23

18:                                               ; preds = %15
  %19 = load ptr, ptr %4, align 8, !tbaa !6
  %20 = call ptr @dt_selection_get_collection(ptr noundef %19)
  %21 = call ptr @dt_collection_get_query_no_group(ptr noundef %20)
  %22 = call noalias ptr (ptr, ...) @g_strdup_printf(ptr noundef @.str.24, ptr noundef %21)
  store ptr %22, ptr %7, align 8, !tbaa !60
  br label %25

23:                                               ; preds = %15
  %24 = call noalias ptr @g_strdup(ptr noundef @.str.25)
  store ptr %24, ptr %7, align 8, !tbaa !60
  br label %25

25:                                               ; preds = %23, %18
  br label %26

26:                                               ; preds = %25, %10
  %27 = load ptr, ptr %7, align 8, !tbaa !60
  call void @llvm.lifetime.end.p0(i64 8, ptr %7) #5
  ret ptr %27
}

; Function Attrs: nounwind uwtable
define ptr @dt_selection_get_list(ptr noundef %0, i32 noundef %1, i32 noundef %2) #0 {
  %4 = alloca ptr, align 8
  %5 = alloca i32, align 4
  %6 = alloca i32, align 4
  %7 = alloca ptr, align 8
  %8 = alloca ptr, align 8
  %9 = alloca ptr, align 8
  %10 = alloca i32, align 4
  store ptr %0, ptr %4, align 8, !tbaa !6
  store i32 %1, ptr %5, align 4, !tbaa !56
  store i32 %2, ptr %6, align 4, !tbaa !56
  call void @llvm.lifetime.start.p0(i64 8, ptr %7) #5
  store ptr null, ptr %7, align 8, !tbaa !52
  call void @llvm.lifetime.start.p0(i64 8, ptr %8) #5
  %11 = load ptr, ptr %4, align 8, !tbaa !6
  %12 = load i32, ptr %5, align 4, !tbaa !56
  %13 = load i32, ptr %6, align 4, !tbaa !56
  %14 = call ptr @dt_selection_get_list_query(ptr noundef %11, i32 noundef %12, i32 noundef %13)
  store ptr %14, ptr %8, align 8, !tbaa !60
  call void @llvm.lifetime.start.p0(i64 8, ptr %9) #5
  br label %15

15:                                               ; preds = %3
  br label %16

16:                                               ; preds = %15
  %17 = load i32, ptr getelementptr inbounds nuw (%struct.darktable_t, ptr @darktable, i32 0, i32 2), align 8, !tbaa !57
  %18 = and i32 256, %17
  %19 = icmp ne i32 %18, 0
  br i1 %19, label %20, label %27

20:                                               ; preds = %16
  %21 = load i32, ptr getelementptr inbounds nuw (%struct.darktable_t, ptr @darktable, i32 0, i32 2), align 8, !tbaa !57
  %22 = xor i32 %21, -1
  %23 = and i32 0, %22
  %24 = icmp ne i32 %23, 0
  br i1 %24, label %27, label %25

25:                                               ; preds = %20
  %26 = load ptr, ptr %8, align 8, !tbaa !60
  call void (ptr, ...) @dt_print_ext(ptr noundef @.str.13, ptr noundef @.str.3, i32 noundef 547, ptr noundef @__FUNCTION__.dt_selection_get_list, ptr noundef %26)
  br label %27

27:                                               ; preds = %25, %20, %16
  br label %28

28:                                               ; preds = %27
  br label %29

29:                                               ; preds = %28
  call void @llvm.lifetime.start.p0(i64 4, ptr %10) #5
  %30 = load ptr, ptr getelementptr inbounds nuw (%struct.darktable_t, ptr @darktable, i32 0, i32 18), align 8, !tbaa !61
  %31 = call ptr @dt_database_get(ptr noundef %30)
  %32 = load ptr, ptr %8, align 8, !tbaa !60
  %33 = call i32 @sqlite3_prepare_v2(ptr noundef %31, ptr noundef %32, i32 noundef -1, ptr noundef %9, ptr noundef null)
  store i32 %33, ptr %10, align 4, !tbaa !56
  %34 = load i32, ptr %10, align 4, !tbaa !56
  %35 = icmp ne i32 %34, 0
  br i1 %35, label %36, label %43

36:                                               ; preds = %29
  %37 = load ptr, ptr @stderr, align 8, !tbaa !62
  %38 = load ptr, ptr %8, align 8, !tbaa !60
  %39 = load ptr, ptr getelementptr inbounds nuw (%struct.darktable_t, ptr @darktable, i32 0, i32 18), align 8, !tbaa !61
  %40 = call ptr @dt_database_get(ptr noundef %39)
  %41 = call ptr @sqlite3_errmsg(ptr noundef %40)
  %42 = call i32 (ptr, ptr, ...) @fprintf(ptr noundef %37, ptr noundef @.str.7, ptr noundef @.str.3, i32 noundef 547, ptr noundef @__FUNCTION__.dt_selection_get_list, ptr noundef %38, ptr noundef %41) #5
  br label %43

43:                                               ; preds = %36, %29
  call void @llvm.lifetime.end.p0(i64 4, ptr %10) #5
  br label %44

44:                                               ; preds = %43
  br label %45

45:                                               ; preds = %44
  %46 = load ptr, ptr %8, align 8, !tbaa !60
  call void @g_free(ptr noundef %46)
  br label %47

47:                                               ; preds = %56, %45
  %48 = load ptr, ptr %9, align 8, !tbaa !86
  %49 = icmp ne ptr %48, null
  br i1 %49, label %50, label %54

50:                                               ; preds = %47
  %51 = load ptr, ptr %9, align 8, !tbaa !86
  %52 = call i32 @sqlite3_step(ptr noundef %51)
  %53 = icmp eq i32 %52, 100
  br label %54

54:                                               ; preds = %50, %47
  %55 = phi i1 [ false, %47 ], [ %53, %50 ]
  br i1 %55, label %56, label %63

56:                                               ; preds = %54
  %57 = load ptr, ptr %7, align 8, !tbaa !52
  %58 = load ptr, ptr %9, align 8, !tbaa !86
  %59 = call i32 @sqlite3_column_int(ptr noundef %58, i32 noundef 0)
  %60 = sext i32 %59 to i64
  %61 = inttoptr i64 %60 to ptr
  %62 = call ptr @g_list_prepend(ptr noundef %57, ptr noundef %61)
  store ptr %62, ptr %7, align 8, !tbaa !52
  br label %47

63:                                               ; preds = %54
  %64 = load i32, ptr %5, align 4, !tbaa !56
  %65 = icmp ne i32 %64, 0
  br i1 %65, label %66, label %69

66:                                               ; preds = %63
  %67 = load i32, ptr %6, align 4, !tbaa !56
  %68 = icmp ne i32 %67, 0
  br i1 %68, label %72, label %69

69:                                               ; preds = %66, %63
  %70 = load ptr, ptr %7, align 8, !tbaa !52
  %71 = call ptr @g_list_reverse(ptr noundef %70)
  store ptr %71, ptr %7, align 8, !tbaa !52
  br label %72

72:                                               ; preds = %69, %66
  %73 = load ptr, ptr %9, align 8, !tbaa !86
  %74 = icmp ne ptr %73, null
  br i1 %74, label %75, label %78

75:                                               ; preds = %72
  %76 = load ptr, ptr %9, align 8, !tbaa !86
  %77 = call i32 @sqlite3_finalize(ptr noundef %76)
  br label %78

78:                                               ; preds = %75, %72
  %79 = load ptr, ptr %7, align 8, !tbaa !52
  call void @llvm.lifetime.end.p0(i64 8, ptr %9) #5
  call void @llvm.lifetime.end.p0(i64 8, ptr %8) #5
  call void @llvm.lifetime.end.p0(i64 8, ptr %7) #5
  ret ptr %79
}