; Function Attrs: nounwind uwtable
define ptr @dt_selection_get_list(ptr noundef readonly captures(none) %0, i32 noundef %1, i32 noundef %2) local_unnamed_addr #1 {
  %4 = alloca ptr, align 8
  %.not.i = icmp eq i32 %1, 0
  %.not4.i = icmp eq i32 %2, 0
  br i1 %.not.i, label %8, label %5

5:                                                ; preds = %3
  %6 = select i1 %.not4.i, ptr @.str.23, ptr @.str.22
  %7 = tail call noalias ptr (ptr, ...) @g_strdup_printf(ptr noundef nonnull @.str.21, ptr noundef nonnull %6) #8
  br label %dt_selection_get_list_query.exit

8:                                                ; preds = %3
  br i1 %.not4.i, label %13, label %9

9:                                                ; preds = %8
  %10 = load ptr, ptr %0, align 8, !tbaa !6
  %11 = tail call ptr @dt_collection_get_query_no_group(ptr noundef %10) #8
  %12 = tail call noalias ptr (ptr, ...) @g_strdup_printf(ptr noundef nonnull @.str.24, ptr noundef %11) #8
  br label %dt_selection_get_list_query.exit

13:                                               ; preds = %8
  %14 = tail call noalias ptr @g_strdup(ptr noundef nonnull @.str.25) #8
  br label %dt_selection_get_list_query.exit

dt_selection_get_list_query.exit:                 ; preds = %5, %9, %13
  %.0.i = phi ptr [ %7, %5 ], [ %12, %9 ], [ %14, %13 ]
  call void @llvm.lifetime.start.p0(i64 8, ptr nonnull %4) #8
  %15 = load i32, ptr getelementptr inbounds nuw (i8, ptr @darktable, i64 8), align 8, !tbaa !54
  %16 = and i32 %15, 256
  %.not = icmp eq i32 %16, 0
  br i1 %.not, label %18, label %17

17:                                               ; preds = %dt_selection_get_list_query.exit
  tail call void (ptr, ...) @dt_print_ext(ptr noundef nonnull @.str.13, ptr noundef nonnull @.str.3, i32 noundef 547, ptr noundef nonnull @__FUNCTION__.dt_selection_get_list, ptr noundef %.0.i) #8
  br label %18

18:                                               ; preds = %17, %dt_selection_get_list_query.exit
  %19 = load ptr, ptr getelementptr inbounds nuw (i8, ptr @darktable, i64 136), align 8, !tbaa !56
  %20 = tail call ptr @dt_database_get(ptr noundef %19) #8
  %21 = call i32 @sqlite3_prepare_v2(ptr noundef %20, ptr noundef %.0.i, i32 noundef -1, ptr noundef nonnull %4, ptr noundef null) #8
  %.not15 = icmp eq i32 %21, 0
  br i1 %.not15, label %28, label %22

22:                                               ; preds = %18
  %23 = load ptr, ptr @stderr, align 8, !tbaa !57
  %24 = load ptr, ptr getelementptr inbounds nuw (i8, ptr @darktable, i64 136), align 8, !tbaa !56
  %25 = call ptr @dt_database_get(ptr noundef %24) #8
  %26 = call ptr @sqlite3_errmsg(ptr noundef %25) #8
  %27 = call i32 (ptr, ptr, ...) @fprintf(ptr noundef %23, ptr noundef nonnull @.str.7, ptr noundef nonnull @.str.3, i32 noundef 547, ptr noundef nonnull @__FUNCTION__.dt_selection_get_list, ptr noundef %.0.i, ptr noundef %26) #9
  br label %28

28:                                               ; preds = %22, %18
  call void @g_free(ptr noundef %.0.i) #8
  %29 = load ptr, ptr %4, align 8, !tbaa !79
  %.not1618 = icmp eq ptr %29, null
  br i1 %.not1618, label %.critedge, label %.lr.ph

.lr.ph:                                           ; preds = %28, %33
  %30 = phi ptr [ %39, %33 ], [ %29, %28 ]
  %.019 = phi ptr [ %38, %33 ], [ null, %28 ]
  %31 = call i32 @sqlite3_step(ptr noundef nonnull %30) #8
  %32 = icmp eq i32 %31, 100
  br i1 %32, label %33, label %.critedge

33:                                               ; preds = %.lr.ph
  %34 = load ptr, ptr %4, align 8, !tbaa !79
  %35 = call i32 @sqlite3_column_int(ptr noundef %34, i32 noundef 0) #8
  %36 = sext i32 %35 to i64
  %37 = inttoptr i64 %36 to ptr
  %38 = call ptr @g_list_prepend(ptr noundef %.019, ptr noundef %37) #8
  %39 = load ptr, ptr %4, align 8, !tbaa !79
  %.not16 = icmp eq ptr %39, null
  br i1 %.not16, label %.critedge, label %.lr.ph

.critedge:                                        ; preds = %.lr.ph, %33, %28
  %.0.lcssa = phi ptr [ null, %28 ], [ %38, %33 ], [ %.019, %.lr.ph ]
  %40 = icmp ne i32 %1, 0
  %41 = icmp ne i32 %2, 0
  %or.cond = and i1 %40, %41
  br i1 %or.cond, label %44, label %42

42:                                               ; preds = %.critedge
  %43 = call ptr @g_list_reverse(ptr noundef %.0.lcssa) #8
  br label %44

44:                                               ; preds = %.critedge, %42
  %.1 = phi ptr [ %.0.lcssa, %.critedge ], [ %43, %42 ]
  %45 = load ptr, ptr %4, align 8, !tbaa !79
  %.not17 = icmp eq ptr %45, null
  br i1 %.not17, label %48, label %46

46:                                               ; preds = %44
  %47 = call i32 @sqlite3_finalize(ptr noundef nonnull %45) #8
  br label %48

48:                                               ; preds = %46, %44
  call void @llvm.lifetime.end.p0(i64 8, ptr nonnull %4) #8
  ret ptr %.1
}